; Function Attrs: mustprogress nounwind uwtable
define hidden void @_ZNK19G1HeapRegionManager7iterateEP19G1HeapRegionClosure(ptr nocapture noundef nonnull readonly align 8 dereferenceable(232) %0, ptr noundef %1) local_unnamed_addr #0 align 2 {
  %3 = getelementptr inbounds i8, ptr %0, i64 112
  %4 = load i64, ptr %3, align 8
  %5 = and i64 %4, 4294967295
  %.not14 = icmp eq i64 %5, 0
  br i1 %.not14, label %.loopexit, label %.lr.ph

.lr.ph:                                           ; preds = %2
  %6 = getelementptr inbounds i8, ptr %0, i64 24
  %7 = getelementptr inbounds i8, ptr %0, i64 104
  %wide.trip.count = and i64 %4, 4294967295
  br label %8

8:                                                ; preds = %.lr.ph, %29
  %indvars.iv = phi i64 [ 0, %.lr.ph ], [ %indvars.iv.next, %29 ]
  %9 = load ptr, ptr %6, align 8
  %10 = lshr i64 %indvars.iv, 6
  %11 = getelementptr inbounds i64, ptr %9, i64 %10
  %12 = load volatile i64, ptr %11, align 8
  tail call void asm sideeffect "", "~{memory},~{dirflag},~{fpsr},~{flags}"() #16, !srcloc !11
  %13 = and i64 %indvars.iv, 63
  %14 = shl nuw i64 1, %13
  %15 = and i64 %12, %14
  %.not10 = icmp eq i64 %15, 0
  br i1 %.not10, label %29, label %16

16:                                               ; preds = %8
  %17 = load ptr, ptr %7, align 8
  %18 = getelementptr inbounds ptr, ptr %17, i64 %indvars.iv
  %19 = load ptr, ptr %18, align 8
  %.not = icmp eq ptr %19, null
  br i1 %.not, label %20, label %23

20:                                               ; preds = %16
  %21 = trunc nuw i64 %indvars.iv to i32
  %22 = load ptr, ptr @g_assert_poison, align 8
  store i8 88, ptr %22, align 1
  tail call void (ptr, i32, ptr, ptr, ...) @_Z15report_vm_errorPKciS0_S0_z(ptr noundef nonnull @.str.4, i32 noundef 508, ptr noundef nonnull @.str.14, ptr noundef nonnull @.str.15, i32 noundef %21) #17
  unreachable

23:                                               ; preds = %16
  %24 = load ptr, ptr %1, align 8
  %25 = load ptr, ptr %24, align 8
  %26 = tail call noundef zeroext i1 %25(ptr noundef nonnull align 8 dereferenceable(9) %1, ptr noundef nonnull %19) #16
  br i1 %26, label %27, label %29

27:                                               ; preds = %23
  %28 = getelementptr inbounds i8, ptr %1, i64 8
  store i8 0, ptr %28, align 8
  br label %.loopexit

29:                                               ; preds = %23, %8
  %indvars.iv.next = add nuw nsw i64 %indvars.iv, 1
  %exitcond.not = icmp eq i64 %indvars.iv.next, %wide.trip.count
  br i1 %exitcond.not, label %.loopexit, label %8, !llvm.loop !25

.loopexit:                                        ; preds = %29, %2, %27
  ret void
}